target datalayout = "e-m:e-p270:32:32-p271:32:32-p272:64:64-i64:64-i128:128-f80:128-n8:16:32:64-S128"
target triple = "x86_64-pc-linux-gnu"

%struct.H5T_conv_func_t = type { i8, %union.anon.14 }
%union.anon.14 = type { ptr }

@.str.2 = private unnamed_addr constant [97 x i8] c"generated/home/dtcxzyw/WorkSpace/Projects/compilers/llvm-opt-benchmark/bench/hdf5/hdf5/src/H5T.c\00", align 1
@H5E_DATATYPE_g = external global i64, align 8
@H5E_CANTINIT_g = external global i64, align 8
@__func__.H5T__register_int = private unnamed_addr constant [18 x i8] c"H5T__register_int\00", align 1
@.str.336 = private unnamed_addr constant [56 x i8] c"unable to register internal datatype conversion routine\00", align 1

; Function Attrs: nounwind uwtable
define internal i32 @H5T__register_int(i32 noundef %0, ptr noundef %1, ptr noundef %2, ptr noundef %3, ptr noundef %4) #0 {
  %6 = alloca i32, align 4
  %7 = alloca ptr, align 8
  %8 = alloca ptr, align 8
  %9 = alloca ptr, align 8
  %10 = alloca ptr, align 8
  %11 = alloca %struct.H5T_conv_func_t, align 8
  %12 = alloca i32, align 4
  %13 = alloca i8, align 1
  store i32 %0, ptr %6, align 4
  store ptr %1, ptr %7, align 8
  store ptr %2, ptr %8, align 8
  store ptr %3, ptr %9, align 8
  store ptr %4, ptr %10, align 8
  store i32 0, ptr %12, align 4
  store i8 0, ptr %13, align 1
  %14 = getelementptr inbounds %struct.H5T_conv_func_t, ptr %11, i32 0, i32 0
  store i8 0, ptr %14, align 8
  %15 = load ptr, ptr %10, align 8
  %16 = getelementptr inbounds %struct.H5T_conv_func_t, ptr %11, i32 0, i32 1
  store ptr %15, ptr %16, align 8
  %17 = load i32, ptr %6, align 4
  %18 = load ptr, ptr %7, align 8
  %19 = load ptr, ptr %8, align 8
  %20 = load ptr, ptr %9, align 8
  %21 = call i32 @H5T__register(i32 noundef %17, ptr noundef %18, ptr noundef %19, ptr noundef %20, ptr noundef %11)
  %22 = icmp slt i32 %21, 0
  br i1 %22, label %23, label %38

23:                                               ; preds = %5
  br label %24

24:                                               ; preds = %23
  br label %25

25:                                               ; preds = %24
  br label %26

26:                                               ; preds = %25
  %27 = load i64, ptr @H5E_DATATYPE_g, align 8
  %28 = load i64, ptr @H5E_CANTINIT_g, align 8
  %29 = call i32 (ptr, ptr, i32, i64, i64, ptr, ...) @H5E_printf_stack(ptr noundef @.str.2, ptr noundef @__func__.H5T__register_int, i32 noundef 2599, i64 noundef %27, i64 noundef %28, ptr noundef @.str.336)
  br label %30

30:                                               ; preds = %26
  store i8 1, ptr %13, align 1
  %31 = load i8, ptr %13, align 1
  %32 = trunc i8 %31 to i1
  %33 = zext i1 %32 to i8
  store i8 %33, ptr %13, align 1
  br label %34

34:                                               ; preds = %30
  br label %35

35:                                               ; preds = %34
  store i32 -1, ptr %12, align 4
  br label %39

36:                                               ; No predecessors!
  br label %37

37:                                               ; preds = %36
  br label %38

38:                                               ; preds = %37, %5
  br label %39

39:                                               ; preds = %38, %35
  %40 = load i32, ptr %12, align 4
  ret i32 %40
}