; Function Attrs: nounwind uwtable
define internal fastcc range(i32 -1, 1) i32 @H5T__register_int(i32 noundef %0, ptr noundef %1, ptr noundef %2, ptr noundef %3, ptr noundef %4) unnamed_addr #0 {
  %6 = alloca %struct.H5T_conv_func_t, align 8
  store i8 0, ptr %6, align 8
  %7 = getelementptr inbounds i8, ptr %6, i64 8
  store ptr %4, ptr %7, align 8
  %8 = call fastcc i32 @H5T__register(i32 noundef %0, ptr noundef %1, ptr noundef %2, ptr noundef %3, ptr noundef nonnull %6)
  %9 = icmp slt i32 %8, 0
  br i1 %9, label %10, label %14

10:                                               ; preds = %5
  %11 = load i64, ptr @H5E_DATATYPE_g, align 8
  %12 = load i64, ptr @H5E_CANTINIT_g, align 8
  %13 = tail call i32 (ptr, ptr, i32, i64, i64, ptr, ...) @H5E_printf_stack(ptr noundef nonnull @.str.2, ptr noundef nonnull @__func__.H5T__register_int, i32 noundef 2599, i64 noundef %11, i64 noundef %12, ptr noundef nonnull @.str.336) #17
  br label %14

14:                                               ; preds = %5, %10
  %.0 = phi i32 [ -1, %10 ], [ 0, %5 ]
  ret i32 %.0
}